target datalayout = "e-m:e-p270:32:32-p271:32:32-p272:64:64-i64:64-i128:128-f80:128-n8:16:32:64-S128"
target triple = "x86_64-pc-linux-gnu"

%struct.H5FL_seq_head_t = type { %struct.H5FL_blk_head_t, i64 }
%struct.H5FL_blk_head_t = type { i8, i32, i32, i64, ptr, ptr }
%struct.H5FL_reg_head_t = type { i8, i32, i32, ptr, i64, ptr }
%struct.H5C_class_t = type { i32, ptr, i32, i32, ptr, ptr, ptr, ptr, ptr, ptr, ptr, ptr, ptr, ptr }
%struct.H5FS_create_t = type { i32, i32, i32, i32, i64 }
%struct.H5FS_t = type { %struct.H5C_cache_entry_t, i64, i64, i64, i64, i32, i16, i32, i32, i32, i64, i64, i64, i64, i32, i64, i64, ptr, i8, i32, i8, i8, i32, i64, i64, i64, ptr }
%struct.H5C_cache_entry_t = type { ptr, i64, i64, ptr, i8, ptr, i8, i8, i8, i8, i32, i8, i8, i8, i8, i8, i32, ptr, i32, i32, i32, i32, i32, i8, i8, ptr, ptr, ptr, ptr, ptr, ptr, i8, i32, i8, i64, ptr, i64, i64, i32, i8, i32, i32, i8, ptr, ptr, ptr }
%struct.H5FS_section_class_t = type { i32, i64, i32, ptr, ptr, ptr, ptr, ptr, ptr, ptr, ptr, ptr, ptr, ptr, ptr, ptr, ptr }

@H5_H5FS_section_class_t_seq_free_list = global %struct.H5FL_seq_head_t { %struct.H5FL_blk_head_t { i8 0, i32 0, i32 0, i64 0, ptr @.str, ptr null }, i64 136 }, align 8
@H5_H5FS_t_reg_free_list = global %struct.H5FL_reg_head_t { i8 0, i32 0, i32 0, ptr @.str.1, i64 416, ptr null }, align 8
@.str.2 = private unnamed_addr constant [98 x i8] c"generated/home/dtcxzyw/WorkSpace/Projects/compilers/llvm-opt-benchmark/bench/hdf5/hdf5/src/H5FS.c\00", align 1
@__func__.H5FS_create = private unnamed_addr constant [12 x i8] c"H5FS_create\00", align 1
@H5E_RESOURCE_g = external global i64, align 8
@H5E_NOSPACE_g = external global i64, align 8
@.str.3 = private unnamed_addr constant [50 x i8] c"memory allocation failed for free space free list\00", align 1
@.str.4 = private unnamed_addr constant [45 x i8] c"file allocation failed for free space header\00", align 1
@H5AC_FSPACE_HDR = external constant [1 x %struct.H5C_class_t], align 16
@H5E_FSPACE_g = external global i64, align 8
@H5E_CANTINIT_g = external global i64, align 8
@.str.5 = private unnamed_addr constant [37 x i8] c"can't add free space header to cache\00", align 1
@H5E_CANTFREE_g = external global i64, align 8
@.str.6 = private unnamed_addr constant [36 x i8] c"unable to destroy free space header\00", align 1
@__func__.H5FS__hdr_dest = private unnamed_addr constant [15 x i8] c"H5FS__hdr_dest\00", align 1
@H5E_CANTRELEASE_g = external global i64, align 8
@.str.31 = private unnamed_addr constant [33 x i8] c"unable to finalize section class\00", align 1

; Function Attrs: nounwind uwtable
define i32 @H5FS__hdr_dest(ptr noundef %0) #0 {
  %2 = alloca ptr, align 8
  %3 = alloca i32, align 4
  %4 = alloca i32, align 4
  %5 = alloca i8, align 1
  store ptr %0, ptr %2, align 8
  store i32 0, ptr %4, align 4
  store i8 0, ptr %5, align 1
  store i32 0, ptr %3, align 4
  br label %6

6:                                                ; preds = %57, %1
  %7 = load i32, ptr %3, align 4
  %8 = load ptr, ptr %2, align 8
  %9 = getelementptr inbounds %struct.H5FS_t, ptr %8, i32 0, i32 6
  %10 = load i16, ptr %9, align 4
  %11 = zext i16 %10 to i32
  %12 = icmp ult i32 %7, %11
  br i1 %12, label %13, label %60

13:                                               ; preds = %6
  %14 = load ptr, ptr %2, align 8
  %15 = getelementptr inbounds %struct.H5FS_t, ptr %14, i32 0, i32 26
  %16 = load ptr, ptr %15, align 8
  %17 = load i32, ptr %3, align 4
  %18 = zext i32 %17 to i64
  %19 = getelementptr inbounds %struct.H5FS_section_class_t, ptr %16, i64 %18
  %20 = getelementptr inbounds %struct.H5FS_section_class_t, ptr %19, i32 0, i32 5
  %21 = load ptr, ptr %20, align 8
  %22 = icmp ne ptr %21, null
  br i1 %22, label %23, label %56

23:                                               ; preds = %13
  %24 = load ptr, ptr %2, align 8
  %25 = getelementptr inbounds %struct.H5FS_t, ptr %24, i32 0, i32 26
  %26 = load ptr, ptr %25, align 8
  %27 = load i32, ptr %3, align 4
  %28 = zext i32 %27 to i64
  %29 = getelementptr inbounds %struct.H5FS_section_class_t, ptr %26, i64 %28
  %30 = getelementptr inbounds %struct.H5FS_section_class_t, ptr %29, i32 0, i32 5
  %31 = load ptr, ptr %30, align 8
  %32 = load ptr, ptr %2, align 8
  %33 = getelementptr inbounds %struct.H5FS_t, ptr %32, i32 0, i32 26
  %34 = load ptr, ptr %33, align 8
  %35 = load i32, ptr %3, align 4
  %36 = zext i32 %35 to i64
  %37 = getelementptr inbounds %struct.H5FS_section_class_t, ptr %34, i64 %36
  %38 = call i32 %31(ptr noundef %37)
  %39 = icmp slt i32 %38, 0
  br i1 %39, label %40, label %55

40:                                               ; preds = %23
  br label %41

41:                                               ; preds = %40
  br label %42

42:                                               ; preds = %41
  br label %43

43:                                               ; preds = %42
  %44 = load i64, ptr @H5E_RESOURCE_g, align 8
  %45 = load i64, ptr @H5E_CANTRELEASE_g, align 8
  %46 = call i32 (ptr, ptr, i32, i64, i64, ptr, ...) @H5E_printf_stack(ptr noundef @.str.2, ptr noundef @__func__.H5FS__hdr_dest, i32 noundef 1000, i64 noundef %44, i64 noundef %45, ptr noundef @.str.31)
  br label %47

47:                                               ; preds = %43
  store i8 1, ptr %5, align 1
  %48 = load i8, ptr %5, align 1
  %49 = trunc i8 %48 to i1
  %50 = zext i1 %49 to i8
  store i8 %50, ptr %5, align 1
  br label %51

51:                                               ; preds = %47
  br label %52

52:                                               ; preds = %51
  store i32 -1, ptr %4, align 4
  br label %75

53:                                               ; No predecessors!
  br label %54

54:                                               ; preds = %53
  br label %55

55:                                               ; preds = %54, %23
  br label %56

56:                                               ; preds = %55, %13
  br label %57

57:                                               ; preds = %56
  %58 = load i32, ptr %3, align 4
  %59 = add i32 %58, 1
  store i32 %59, ptr %3, align 4
  br label %6

60:                                               ; preds = %6
  %61 = load ptr, ptr %2, align 8
  %62 = getelementptr inbounds %struct.H5FS_t, ptr %61, i32 0, i32 26
  %63 = load ptr, ptr %62, align 8
  %64 = icmp ne ptr %63, null
  br i1 %64, label %65, label %72

65:                                               ; preds = %60
  %66 = load ptr, ptr %2, align 8
  %67 = getelementptr inbounds %struct.H5FS_t, ptr %66, i32 0, i32 26
  %68 = load ptr, ptr %67, align 8
  %69 = call ptr @H5FL_seq_free(ptr noundef @H5_H5FS_section_class_t_seq_free_list, ptr noundef %68)
  %70 = load ptr, ptr %2, align 8
  %71 = getelementptr inbounds %struct.H5FS_t, ptr %70, i32 0, i32 26
  store ptr %69, ptr %71, align 8
  br label %72

72:                                               ; preds = %65, %60
  %73 = load ptr, ptr %2, align 8
  %74 = call ptr @H5FL_reg_free(ptr noundef @H5_H5FS_t_reg_free_list, ptr noundef %73)
  store ptr %74, ptr %2, align 8
  br label %75

75:                                               ; preds = %72, %52
  %76 = load i32, ptr %4, align 4
  ret i32 %76
}

; Function Attrs: nounwind uwtable
define ptr @H5FS_create(ptr noundef %0, ptr noundef %1, ptr noundef %2, i16 noundef zeroext %3, ptr noundef %4, ptr noundef %5, i64 noundef %6, i64 noundef %7) #0 {
  %9 = alloca ptr, align 8
  %10 = alloca ptr, align 8
  %11 = alloca ptr, align 8
  %12 = alloca i16, align 2
  %13 = alloca ptr, align 8
  %14 = alloca ptr, align 8
  %15 = alloca i64, align 8
  %16 = alloca i64, align 8
  %17 = alloca ptr, align 8
  %18 = alloca ptr, align 8
  %19 = alloca i8, align 1
  store ptr %0, ptr %9, align 8
  store ptr %1, ptr %10, align 8
  store ptr %2, ptr %11, align 8
  store i16 %3, ptr %12, align 2
  store ptr %4, ptr %13, align 8
  store ptr %5, ptr %14, align 8
  store i64 %6, ptr %15, align 8
  store i64 %7, ptr %16, align 8
  store ptr null, ptr %17, align 8
  store ptr null, ptr %18, align 8
  store i8 0, ptr %19, align 1
  %20 = load ptr, ptr %9, align 8
  %21 = load i16, ptr %12, align 2
  %22 = load ptr, ptr %13, align 8
  %23 = load ptr, ptr %14, align 8
  %24 = call ptr @H5FS__new(ptr noundef %20, i16 noundef zeroext %21, ptr noundef %22, ptr noundef %23)
  store ptr %24, ptr %17, align 8
  %25 = icmp eq ptr null, %24
  br i1 %25, label %26, label %41

26:                                               ; preds = %8
  br label %27

27:                                               ; preds = %26
  br label %28

28:                                               ; preds = %27
  br label %29

29:                                               ; preds = %28
  %30 = load i64, ptr @H5E_RESOURCE_g, align 8
  %31 = load i64, ptr @H5E_NOSPACE_g, align 8
  %32 = call i32 (ptr, ptr, i32, i64, i64, ptr, ...) @H5E_printf_stack(ptr noundef @.str.2, ptr noundef @__func__.H5FS_create, i32 noundef 107, i64 noundef %30, i64 noundef %31, ptr noundef @.str.3)
  br label %33

33:                                               ; preds = %29
  store i8 1, ptr %19, align 1
  %34 = load i8, ptr %19, align 1
  %35 = trunc i8 %34 to i1
  %36 = zext i1 %35 to i8
  store i8 %36, ptr %19, align 1
  br label %37

37:                                               ; preds = %33
  br label %38

38:                                               ; preds = %37
  store ptr null, ptr %18, align 8
  br label %138

39:                                               ; No predecessors!
  br label %40

40:                                               ; preds = %39
  br label %41

41:                                               ; preds = %40, %8
  %42 = load ptr, ptr %11, align 8
  %43 = getelementptr inbounds %struct.H5FS_create_t, ptr %42, i32 0, i32 0
  %44 = load i32, ptr %43, align 8
  %45 = load ptr, ptr %17, align 8
  %46 = getelementptr inbounds %struct.H5FS_t, ptr %45, i32 0, i32 5
  store i32 %44, ptr %46, align 8
  %47 = load ptr, ptr %11, align 8
  %48 = getelementptr inbounds %struct.H5FS_create_t, ptr %47, i32 0, i32 1
  %49 = load i32, ptr %48, align 4
  %50 = load ptr, ptr %17, align 8
  %51 = getelementptr inbounds %struct.H5FS_t, ptr %50, i32 0, i32 7
  store i32 %49, ptr %51, align 8
  %52 = load ptr, ptr %11, align 8
  %53 = getelementptr inbounds %struct.H5FS_create_t, ptr %52, i32 0, i32 2
  %54 = load i32, ptr %53, align 8
  %55 = load ptr, ptr %17, align 8
  %56 = getelementptr inbounds %struct.H5FS_t, ptr %55, i32 0, i32 8
  store i32 %54, ptr %56, align 4
  %57 = load ptr, ptr %11, align 8
  %58 = getelementptr inbounds %struct.H5FS_create_t, ptr %57, i32 0, i32 3
  %59 = load i32, ptr %58, align 4
  %60 = load ptr, ptr %17, align 8
  %61 = getelementptr inbounds %struct.H5FS_t, ptr %60, i32 0, i32 9
  store i32 %59, ptr %61, align 8
  %62 = load ptr, ptr %11, align 8
  %63 = getelementptr inbounds %struct.H5FS_create_t, ptr %62, i32 0, i32 4
  %64 = load i64, ptr %63, align 8
  %65 = load ptr, ptr %17, align 8
  %66 = getelementptr inbounds %struct.H5FS_t, ptr %65, i32 0, i32 10
  store i64 %64, ptr %66, align 8
  %67 = load ptr, ptr %9, align 8
  %68 = call i32 @H5F_get_intent(ptr noundef %67)
  %69 = and i32 %68, 32
  %70 = icmp ugt i32 %69, 0
  %71 = load ptr, ptr %17, align 8
  %72 = getelementptr inbounds %struct.H5FS_t, ptr %71, i32 0, i32 18
  %73 = zext i1 %70 to i8
  store i8 %73, ptr %72, align 8
  %74 = load i64, ptr %15, align 8
  %75 = load ptr, ptr %17, align 8
  %76 = getelementptr inbounds %struct.H5FS_t, ptr %75, i32 0, i32 24
  store i64 %74, ptr %76, align 8
  %77 = load i64, ptr %16, align 8
  %78 = load ptr, ptr %17, align 8
  %79 = getelementptr inbounds %struct.H5FS_t, ptr %78, i32 0, i32 25
  store i64 %77, ptr %79, align 8
  %80 = load ptr, ptr %10, align 8
  %81 = icmp ne ptr %80, null
  br i1 %81, label %82, label %134

82:                                               ; preds = %41
  %83 = load ptr, ptr %9, align 8
  %84 = load ptr, ptr %17, align 8
  %85 = getelementptr inbounds %struct.H5FS_t, ptr %84, i32 0, i32 16
  %86 = load i64, ptr %85, align 8
  %87 = call i64 @H5MF_alloc(ptr noundef %83, i32 noundef 6, i64 noundef %86)
  %88 = load ptr, ptr %17, align 8
  %89 = getelementptr inbounds %struct.H5FS_t, ptr %88, i32 0, i32 15
  store i64 %87, ptr %89, align 8
  %90 = icmp eq i64 -1, %87
  br i1 %90, label %91, label %106

91:                                               ; preds = %82
  br label %92

92:                                               ; preds = %91
  br label %93

93:                                               ; preds = %92
  br label %94

94:                                               ; preds = %93
  %95 = load i64, ptr @H5E_RESOURCE_g, align 8
  %96 = load i64, ptr @H5E_NOSPACE_g, align 8
  %97 = call i32 (ptr, ptr, i32, i64, i64, ptr, ...) @H5E_printf_stack(ptr noundef @.str.2, ptr noundef @__func__.H5FS_create, i32 noundef 124, i64 noundef %95, i64 noundef %96, ptr noundef @.str.4)
  br label %98

98:                                               ; preds = %94
  store i8 1, ptr %19, align 1
  %99 = load i8, ptr %19, align 1
  %100 = trunc i8 %99 to i1
  %101 = zext i1 %100 to i8
  store i8 %101, ptr %19, align 1
  br label %102

102:                                              ; preds = %98
  br label %103

103:                                              ; preds = %102
  store ptr null, ptr %18, align 8
  br label %138

104:                                              ; No predecessors!
  br label %105

105:                                              ; preds = %104
  br label %106

106:                                              ; preds = %105, %82
  %107 = load ptr, ptr %9, align 8
  %108 = load ptr, ptr %17, align 8
  %109 = getelementptr inbounds %struct.H5FS_t, ptr %108, i32 0, i32 15
  %110 = load i64, ptr %109, align 8
  %111 = load ptr, ptr %17, align 8
  %112 = call i32 @H5AC_insert_entry(ptr noundef %107, ptr noundef @H5AC_FSPACE_HDR, i64 noundef %110, ptr noundef %111, i32 noundef 4)
  %113 = icmp slt i32 %112, 0
  br i1 %113, label %114, label %129

114:                                              ; preds = %106
  br label %115

115:                                              ; preds = %114
  br label %116

116:                                              ; preds = %115
  br label %117

117:                                              ; preds = %116
  %118 = load i64, ptr @H5E_FSPACE_g, align 8
  %119 = load i64, ptr @H5E_CANTINIT_g, align 8
  %120 = call i32 (ptr, ptr, i32, i64, i64, ptr, ...) @H5E_printf_stack(ptr noundef @.str.2, ptr noundef @__func__.H5FS_create, i32 noundef 128, i64 noundef %118, i64 noundef %119, ptr noundef @.str.5)
  br label %121

121:                                              ; preds = %117
  store i8 1, ptr %19, align 1
  %122 = load i8, ptr %19, align 1
  %123 = trunc i8 %122 to i1
  %124 = zext i1 %123 to i8
  store i8 %124, ptr %19, align 1
  br label %125

125:                                              ; preds = %121
  br label %126

126:                                              ; preds = %125
  store ptr null, ptr %18, align 8
  br label %138

127:                                              ; No predecessors!
  br label %128

128:                                              ; preds = %127
  br label %129

129:                                              ; preds = %128, %106
  %130 = load ptr, ptr %17, align 8
  %131 = getelementptr inbounds %struct.H5FS_t, ptr %130, i32 0, i32 15
  %132 = load i64, ptr %131, align 8
  %133 = load ptr, ptr %10, align 8
  store i64 %132, ptr %133, align 8
  br label %134

134:                                              ; preds = %129, %41
  %135 = load ptr, ptr %17, align 8
  %136 = getelementptr inbounds %struct.H5FS_t, ptr %135, i32 0, i32 14
  store i32 1, ptr %136, align 8
  %137 = load ptr, ptr %17, align 8
  store ptr %137, ptr %18, align 8
  br label %138

138:                                              ; preds = %134, %126, %103, %38
  %139 = load ptr, ptr %18, align 8
  %140 = icmp ne ptr %139, null
  br i1 %140, label %162, label %141

141:                                              ; preds = %138
  %142 = load ptr, ptr %17, align 8
  %143 = icmp ne ptr %142, null
  br i1 %143, label %144, label %162

144:                                              ; preds = %141
  %145 = load ptr, ptr %17, align 8
  %146 = call i32 @H5FS__hdr_dest(ptr noundef %145)
  %147 = icmp slt i32 %146, 0
  br i1 %147, label %148, label %161

148:                                              ; preds = %144
  br label %149

149:                                              ; preds = %148
  br label %150

150:                                              ; preds = %149
  br label %151

151:                                              ; preds = %150
  %152 = load i64, ptr @H5E_FSPACE_g, align 8
  %153 = load i64, ptr @H5E_CANTFREE_g, align 8
  %154 = call i32 (ptr, ptr, i32, i64, i64, ptr, ...) @H5E_printf_stack(ptr noundef @.str.2, ptr noundef @__func__.H5FS_create, i32 noundef 147, i64 noundef %152, i64 noundef %153, ptr noundef @.str.6)
  br label %155

155:                                              ; preds = %151
  store i8 1, ptr %19, align 1
  %156 = load i8, ptr %19, align 1
  %157 = trunc i8 %156 to i1
  %158 = zext i1 %157 to i8
  store i8 %158, ptr %19, align 1
  br label %159

159:                                              ; preds = %155
  store ptr null, ptr %18, align 8
  br label %160

160:                                              ; preds = %159
  br label %161

161:                                              ; preds = %160, %144
  br label %162

162:                                              ; preds = %161, %141, %138
  %163 = load ptr, ptr %18, align 8
  ret ptr %163
}