; Function Attrs: nounwind uwtable
define ptr @H5FS_create(ptr noundef %0, ptr noundef writeonly %1, ptr nocapture noundef readonly %2, i16 noundef zeroext %3, ptr nocapture noundef readonly %4, ptr noundef %5, i64 noundef %6, i64 noundef %7) local_unnamed_addr #0 {
  %9 = tail call ptr @H5FS__new(ptr noundef %0, i16 noundef zeroext %3, ptr noundef %4, ptr noundef %5)
  %10 = icmp eq ptr %9, null
  br i1 %10, label %11, label %15

11:                                               ; preds = %8
  %12 = load i64, ptr @H5E_RESOURCE_g, align 8
  %13 = load i64, ptr @H5E_NOSPACE_g, align 8
  %14 = tail call i32 (ptr, ptr, i32, i64, i64, ptr, ...) @H5E_printf_stack(ptr noundef nonnull @.str.2, ptr noundef nonnull @__func__.H5FS_create, i32 noundef 107, i64 noundef %12, i64 noundef %13, ptr noundef nonnull @.str.3) #5
  br label %.thread

15:                                               ; preds = %8
  %16 = load i32, ptr %2, align 8
  %17 = getelementptr inbounds i8, ptr %9, i64 280
  store i32 %16, ptr %17, align 8
  %18 = getelementptr inbounds i8, ptr %2, i64 4
  %19 = load i32, ptr %18, align 4
  %20 = getelementptr inbounds i8, ptr %9, i64 288
  store i32 %19, ptr %20, align 8
  %21 = getelementptr inbounds i8, ptr %2, i64 8
  %22 = load i32, ptr %21, align 8
  %23 = getelementptr inbounds i8, ptr %9, i64 292
  store i32 %22, ptr %23, align 4
  %24 = getelementptr inbounds i8, ptr %2, i64 12
  %25 = load i32, ptr %24, align 4
  %26 = getelementptr inbounds i8, ptr %9, i64 296
  store i32 %25, ptr %26, align 8
  %27 = getelementptr inbounds i8, ptr %2, i64 16
  %28 = load i64, ptr %27, align 8
  %29 = getelementptr inbounds i8, ptr %9, i64 304
  store i64 %28, ptr %29, align 8
  %30 = tail call i32 @H5F_get_intent(ptr noundef %0) #5
  %31 = getelementptr inbounds i8, ptr %9, i64 368
  %32 = trunc i32 %30 to i8
  %33 = lshr i8 %32, 5
  %34 = and i8 %33, 1
  store i8 %34, ptr %31, align 8
  %35 = getelementptr inbounds i8, ptr %9, i64 392
  store i64 %6, ptr %35, align 8
  %36 = getelementptr inbounds i8, ptr %9, i64 400
  store i64 %7, ptr %36, align 8
  %.not = icmp eq ptr %1, null
  br i1 %.not, label %56, label %37

37:                                               ; preds = %15
  %38 = getelementptr inbounds i8, ptr %9, i64 352
  %39 = load i64, ptr %38, align 8
  %40 = tail call i64 @H5MF_alloc(ptr noundef %0, i32 noundef 6, i64 noundef %39) #5
  %41 = getelementptr inbounds i8, ptr %9, i64 344
  store i64 %40, ptr %41, align 8
  %42 = icmp eq i64 %40, -1
  br i1 %42, label %43, label %47

43:                                               ; preds = %37
  %44 = load i64, ptr @H5E_RESOURCE_g, align 8
  %45 = load i64, ptr @H5E_NOSPACE_g, align 8
  %46 = tail call i32 (ptr, ptr, i32, i64, i64, ptr, ...) @H5E_printf_stack(ptr noundef nonnull @.str.2, ptr noundef nonnull @__func__.H5FS_create, i32 noundef 124, i64 noundef %44, i64 noundef %45, ptr noundef nonnull @.str.4) #5
  br label %58

47:                                               ; preds = %37
  %48 = tail call i32 @H5AC_insert_entry(ptr noundef %0, ptr noundef nonnull @H5AC_FSPACE_HDR, i64 noundef %40, ptr noundef nonnull %9, i32 noundef 4) #5
  %49 = icmp slt i32 %48, 0
  br i1 %49, label %50, label %54

50:                                               ; preds = %47
  %51 = load i64, ptr @H5E_FSPACE_g, align 8
  %52 = load i64, ptr @H5E_CANTINIT_g, align 8
  %53 = tail call i32 (ptr, ptr, i32, i64, i64, ptr, ...) @H5E_printf_stack(ptr noundef nonnull @.str.2, ptr noundef nonnull @__func__.H5FS_create, i32 noundef 128, i64 noundef %51, i64 noundef %52, ptr noundef nonnull @.str.5) #5
  br label %58

54:                                               ; preds = %47
  %55 = load i64, ptr %41, align 8
  store i64 %55, ptr %1, align 8
  br label %56

56:                                               ; preds = %54, %15
  %57 = getelementptr inbounds i8, ptr %9, i64 336
  store i32 1, ptr %57, align 8
  br label %.thread

58:                                               ; preds = %43, %50
  %59 = getelementptr inbounds i8, ptr %9, i64 284
  %60 = load i16, ptr %59, align 4
  %.not19.i = icmp eq i16 %60, 0
  br i1 %.not19.i, label %._crit_edge.i, label %.lr.ph.i

.lr.ph.i:                                         ; preds = %58
  %61 = getelementptr inbounds i8, ptr %9, i64 408
  br label %62

62:                                               ; preds = %71, %.lr.ph.i
  %63 = phi i16 [ %60, %.lr.ph.i ], [ %72, %71 ]
  %indvars.iv.i = phi i64 [ 0, %.lr.ph.i ], [ %indvars.iv.next.i, %71 ]
  %64 = load ptr, ptr %61, align 8
  %65 = getelementptr inbounds %struct.H5FS_section_class_t, ptr %64, i64 %indvars.iv.i
  %66 = getelementptr inbounds i8, ptr %65, i64 40
  %67 = load ptr, ptr %66, align 8
  %.not17.i = icmp eq ptr %67, null
  br i1 %.not17.i, label %71, label %68

68:                                               ; preds = %62
  %69 = tail call i32 %67(ptr noundef nonnull %65) #5
  %70 = icmp slt i32 %69, 0
  br i1 %70, label %80, label %._crit_edge21.i

._crit_edge21.i:                                  ; preds = %68
  %.pre.i = load i16, ptr %59, align 4
  br label %71

71:                                               ; preds = %._crit_edge21.i, %62
  %72 = phi i16 [ %.pre.i, %._crit_edge21.i ], [ %63, %62 ]
  %indvars.iv.next.i = add nuw nsw i64 %indvars.iv.i, 1
  %73 = zext i16 %72 to i64
  %74 = icmp ult i64 %indvars.iv.next.i, %73
  br i1 %74, label %62, label %._crit_edge.i

._crit_edge.i:                                    ; preds = %71, %58
  %75 = getelementptr inbounds i8, ptr %9, i64 408
  %76 = load ptr, ptr %75, align 8
  %.not.i = icmp eq ptr %76, null
  br i1 %.not.i, label %H5FS__hdr_dest.exit, label %77

77:                                               ; preds = %._crit_edge.i
  %78 = tail call ptr @H5FL_seq_free(ptr noundef nonnull @H5_H5FS_section_class_t_seq_free_list, ptr noundef nonnull %76) #5
  store ptr %78, ptr %75, align 8
  br label %H5FS__hdr_dest.exit

H5FS__hdr_dest.exit:                              ; preds = %._crit_edge.i, %77
  %79 = tail call ptr @H5FL_reg_free(ptr noundef nonnull @H5_H5FS_t_reg_free_list, ptr noundef nonnull %9) #5
  br label %.thread

80:                                               ; preds = %68
  %81 = load i64, ptr @H5E_RESOURCE_g, align 8
  %82 = load i64, ptr @H5E_CANTRELEASE_g, align 8
  %83 = tail call i32 (ptr, ptr, i32, i64, i64, ptr, ...) @H5E_printf_stack(ptr noundef nonnull @.str.2, ptr noundef nonnull @__func__.H5FS__hdr_dest, i32 noundef 1000, i64 noundef %81, i64 noundef %82, ptr noundef nonnull @.str.31) #5
  %84 = load i64, ptr @H5E_FSPACE_g, align 8
  %85 = load i64, ptr @H5E_CANTFREE_g, align 8
  %86 = tail call i32 (ptr, ptr, i32, i64, i64, ptr, ...) @H5E_printf_stack(ptr noundef nonnull @.str.2, ptr noundef nonnull @__func__.H5FS_create, i32 noundef 147, i64 noundef %84, i64 noundef %85, ptr noundef nonnull @.str.6) #5
  br label %.thread

.thread:                                          ; preds = %11, %56, %H5FS__hdr_dest.exit, %80
  %.1 = phi ptr [ null, %80 ], [ null, %H5FS__hdr_dest.exit ], [ %9, %56 ], [ null, %11 ]
  ret ptr %.1
}